target datalayout = "e-m:e-p270:32:32-p271:32:32-p272:64:64-i64:64-i128:128-f80:128-n8:16:32:64-S128"
target triple = "x86_64-pc-linux-gnu"

%struct._object = type { %union.anon, ptr }
%union.anon = type { i64 }

@_Py_NoneStruct = external global %struct._object, align 8
@.str.48 = private unnamed_addr constant [3 x i8] c"OO\00", align 1
@.str.51 = private unnamed_addr constant [17 x i8] c"PyErr_Occurred()\00", align 1
@.str.52 = private unnamed_addr constant [47 x i8] c"../cpython/Modules/_testlimitedcapi/abstract.c\00", align 1
@.str.53 = private unnamed_addr constant [18 x i8] c"!PyErr_Occurred()\00", align 1
@__PRETTY_FUNCTION__.sequence_count = private unnamed_addr constant [49 x i8] c"PyObject *sequence_count(PyObject *, PyObject *)\00", align 1

; Function Attrs: nounwind uwtable
define internal ptr @sequence_count(ptr noundef %0, ptr noundef %1) #0 {
  %3 = alloca ptr, align 8
  %4 = alloca ptr, align 8
  %5 = alloca ptr, align 8
  %6 = alloca ptr, align 8
  %7 = alloca ptr, align 8
  %8 = alloca i32, align 4
  %9 = alloca i64, align 8
  store ptr %0, ptr %4, align 8, !tbaa !3
  store ptr %1, ptr %5, align 8, !tbaa !3
  call void @llvm.lifetime.start.p0(i64 8, ptr %6) #4
  call void @llvm.lifetime.start.p0(i64 8, ptr %7) #4
  %10 = load ptr, ptr %5, align 8, !tbaa !3
  %11 = call i32 (ptr, ptr, ...) @PyArg_ParseTuple(ptr noundef %10, ptr noundef @.str.48, ptr noundef %6, ptr noundef %7)
  %12 = icmp ne i32 %11, 0
  br i1 %12, label %14, label %13

13:                                               ; preds = %2
  store ptr null, ptr %3, align 8
  store i32 1, ptr %8, align 4
  br label %54

14:                                               ; preds = %2
  br label %15

15:                                               ; preds = %14
  %16 = load ptr, ptr %6, align 8, !tbaa !3
  %17 = icmp eq ptr %16, @_Py_NoneStruct
  br i1 %17, label %18, label %19

18:                                               ; preds = %15
  store ptr null, ptr %6, align 8, !tbaa !3
  br label %19

19:                                               ; preds = %18, %15
  br label %20

20:                                               ; preds = %19
  br label %21

21:                                               ; preds = %20
  br label %22

22:                                               ; preds = %21
  %23 = load ptr, ptr %7, align 8, !tbaa !3
  %24 = icmp eq ptr %23, @_Py_NoneStruct
  br i1 %24, label %25, label %26

25:                                               ; preds = %22
  store ptr null, ptr %7, align 8, !tbaa !3
  br label %26

26:                                               ; preds = %25, %22
  br label %27

27:                                               ; preds = %26
  br label %28

28:                                               ; preds = %27
  br label %29

29:                                               ; preds = %28
  call void @llvm.lifetime.start.p0(i64 8, ptr %9) #4
  %30 = load ptr, ptr %6, align 8, !tbaa !3
  %31 = load ptr, ptr %7, align 8, !tbaa !3
  %32 = call i64 @PySequence_Count(ptr noundef %30, ptr noundef %31)
  store i64 %32, ptr %9, align 8, !tbaa !12
  %33 = load i64, ptr %9, align 8, !tbaa !12
  %34 = icmp eq i64 %33, -1
  br i1 %34, label %35, label %42

35:                                               ; preds = %29
  %36 = call ptr @PyErr_Occurred()
  %37 = icmp ne ptr %36, null
  br i1 %37, label %38, label %39

38:                                               ; preds = %35
  br label %41

39:                                               ; preds = %35
  call void @__assert_fail(ptr noundef @.str.51, ptr noundef @.str.52, i32 noundef 475, ptr noundef @__PRETTY_FUNCTION__.sequence_count) #5
  unreachable

40:                                               ; No predecessors!
  br label %41

41:                                               ; preds = %40, %38
  store ptr null, ptr %3, align 8
  store i32 1, ptr %8, align 4
  br label %51

42:                                               ; preds = %29
  %43 = call ptr @PyErr_Occurred()
  %44 = icmp ne ptr %43, null
  br i1 %44, label %46, label %45

45:                                               ; preds = %42
  br label %48

46:                                               ; preds = %42
  call void @__assert_fail(ptr noundef @.str.53, ptr noundef @.str.52, i32 noundef 475, ptr noundef @__PRETTY_FUNCTION__.sequence_count) #5
  unreachable

47:                                               ; No predecessors!
  br label %48

48:                                               ; preds = %47, %45
  %49 = load i64, ptr %9, align 8, !tbaa !12
  %50 = call ptr @PyLong_FromSsize_t(i64 noundef %49)
  store ptr %50, ptr %3, align 8
  store i32 1, ptr %8, align 4
  br label %51

51:                                               ; preds = %48, %41
  call void @llvm.lifetime.end.p0(i64 8, ptr %9) #4
  br label %54

52:                                               ; No predecessors!
  br label %53

53:                                               ; preds = %52
  store i32 0, ptr %8, align 4
  br label %54

54:                                               ; preds = %53, %51, %13
  call void @llvm.lifetime.end.p0(i64 8, ptr %7) #4
  call void @llvm.lifetime.end.p0(i64 8, ptr %6) #4
  %55 = load i32, ptr %8, align 4
  switch i32 %55, label %58 [
    i32 0, label %56
    i32 1, label %56
  ]

56:                                               ; preds = %54, %54
  %57 = load ptr, ptr %3, align 8
  ret ptr %57

58:                                               ; preds = %54
  unreachable
}